target datalayout = "e-m:e-p270:32:32-p271:32:32-p272:64:64-i64:64-i128:128-f80:128-n8:16:32:64-S128"
target triple = "x86_64-unknown-linux-gnu"

%"class.icu_75::MaybeStackArray" = type <{ ptr, i32, i8, [40 x i8], [3 x i8] }>
%"class.icu_75::numparse::impl::MinusSignMatcher" = type <{ %"class.icu_75::numparse::impl::SymbolMatcher", i8, [7 x i8] }>
%"class.icu_75::numparse::impl::SymbolMatcher" = type { %"class.icu_75::numparse::impl::NumberParseMatcher", %"class.icu_75::UnicodeString", ptr }
%"class.icu_75::numparse::impl::NumberParseMatcher" = type { ptr }
%"class.icu_75::UnicodeString" = type { %"class.icu_75::Replaceable", %"union.icu_75::UnicodeString::StackBufferOrFields" }
%"class.icu_75::Replaceable" = type { %"class.icu_75::UObject" }
%"class.icu_75::UObject" = type { ptr }
%"union.icu_75::UnicodeString::StackBufferOrFields" = type { %struct.anon.1, [32 x i8] }
%struct.anon.1 = type { i16, i32, i32, ptr }
%"class.icu_75::numparse::impl::AffixTokenMatcherWarehouse" = type { ptr, %"class.icu_75::numparse::impl::MinusSignMatcher", %"class.icu_75::numparse::impl::PlusSignMatcher", %"class.icu_75::numparse::impl::PercentMatcher", %"class.icu_75::numparse::impl::PermilleMatcher", %"class.icu_75::numparse::impl::CombinedCurrencyMatcher", %"class.icu_75::MemoryPool" }
%"class.icu_75::numparse::impl::PlusSignMatcher" = type <{ %"class.icu_75::numparse::impl::SymbolMatcher", i8, [7 x i8] }>
%"class.icu_75::numparse::impl::PercentMatcher" = type { %"class.icu_75::numparse::impl::SymbolMatcher" }
%"class.icu_75::numparse::impl::PermilleMatcher" = type { %"class.icu_75::numparse::impl::SymbolMatcher" }
%"class.icu_75::numparse::impl::CombinedCurrencyMatcher" = type { %"class.icu_75::numparse::impl::NumberParseMatcher", [4 x i16], %"class.icu_75::UnicodeString", %"class.icu_75::UnicodeString", i8, [8 x %"class.icu_75::UnicodeString"], %"class.icu_75::UnicodeString", %"class.icu_75::UnicodeString", %"class.icu_75::CharString" }
%"class.icu_75::CharString" = type { %"class.icu_75::MaybeStackArray", i32, [4 x i8] }
%"class.icu_75::MemoryPool" = type { i32, %"class.icu_75::MaybeStackArray.2" }
%"class.icu_75::MaybeStackArray.2" = type { ptr, i32, i8, [8 x ptr] }

; Function Attrs: mustprogress nounwind uwtable
define internal noundef signext i8 @_ZL9U_FAILURE10UErrorCode(i32 noundef %code) #0 {
entry:
  %code.addr = alloca i32, align 4
  store i32 %code, ptr %code.addr, align 4
  %0 = load i32, ptr %code.addr, align 4
  %cmp = icmp sgt i32 %0, 0
  %conv = zext i1 %cmp to i8
  ret i8 %conv
}

; Function Attrs: mustprogress uwtable
define noundef ptr @_ZN6icu_758numparse4impl26AffixTokenMatcherWarehouse20nextCodePointMatcherEiR10UErrorCode(ptr noundef nonnull align 8 dereferenceable(1288) %this, i32 noundef %cp, ptr noundef nonnull align 4 dereferenceable(4) %status) #1 align 2 {
entry:
  %retval = alloca ptr, align 8
  %this.addr = alloca ptr, align 8
  %cp.addr = alloca i32, align 4
  %status.addr = alloca ptr, align 8
  %result = alloca ptr, align 8
  store ptr %this, ptr %this.addr, align 8
  store i32 %cp, ptr %cp.addr, align 4
  store ptr %status, ptr %status.addr, align 8
  %this1 = load ptr, ptr %this.addr, align 8
  %0 = load ptr, ptr %status.addr, align 8
  %1 = load i32, ptr %0, align 4
  %call = call noundef signext i8 @_ZL9U_FAILURE10UErrorCode(i32 noundef %1)
  %tobool = icmp ne i8 %call, 0
  br i1 %tobool, label %if.then, label %if.end

if.then:                                          ; preds = %entry
  store ptr null, ptr %retval, align 8
  br label %return

if.end:                                           ; preds = %entry
  %fCodePoints = getelementptr inbounds %"class.icu_75::numparse::impl::AffixTokenMatcherWarehouse", ptr %this1, i32 0, i32 6
  %call2 = call noundef ptr @_ZN6icu_7510MemoryPoolINS_8numparse4impl16CodePointMatcherELi8EE6createIJRiEEEPS3_DpOT_(ptr noundef nonnull align 8 dereferenceable(88) %fCodePoints, ptr noundef nonnull align 4 dereferenceable(4) %cp.addr)
  store ptr %call2, ptr %result, align 8
  %2 = load ptr, ptr %result, align 8
  %cmp = icmp eq ptr %2, null
  br i1 %cmp, label %if.then3, label %if.end4

if.then3:                                         ; preds = %if.end
  %3 = load ptr, ptr %status.addr, align 8
  store i32 7, ptr %3, align 4
  br label %if.end4

if.end4:                                          ; preds = %if.then3, %if.end
  %4 = load ptr, ptr %result, align 8
  store ptr %4, ptr %retval, align 8
  br label %return

return:                                           ; preds = %if.end4, %if.then
  %5 = load ptr, ptr %retval, align 8
  ret ptr %5
}