; Function Attrs: mustprogress uwtable
define noundef ptr @_ZN6icu_758numparse4impl26AffixTokenMatcherWarehouse20nextCodePointMatcherEiR10UErrorCode(ptr noundef nonnull align 8 dereferenceable(1288) %this, i32 noundef %cp, ptr nocapture noundef nonnull align 4 dereferenceable(4) %status) local_unnamed_addr #1 align 2 {
entry:
  %cp.addr = alloca i32, align 4
  store i32 %cp, ptr %cp.addr, align 4
  %0 = load i32, ptr %status, align 4
  %cmp.i = icmp slt i32 %0, 1
  br i1 %cmp.i, label %if.end, label %return

if.end:                                           ; preds = %entry
  %fCodePoints = getelementptr inbounds i8, ptr %this, i64 1200
  %call2 = call noundef ptr @_ZN6icu_7510MemoryPoolINS_8numparse4impl16CodePointMatcherELi8EE6createIJRiEEEPS3_DpOT_(ptr noundef nonnull align 8 dereferenceable(88) %fCodePoints, ptr noundef nonnull align 4 dereferenceable(4) %cp.addr)
  %cmp = icmp eq ptr %call2, null
  br i1 %cmp, label %if.then3, label %return

if.then3:                                         ; preds = %if.end
  store i32 7, ptr %status, align 4
  br label %return

return:                                           ; preds = %if.end, %if.then3, %entry
  %retval.0 = phi ptr [ null, %entry ], [ null, %if.then3 ], [ %call2, %if.end ]
  ret ptr %retval.0
}